target datalayout = "e-m:e-p270:32:32-p271:32:32-p272:64:64-i64:64-i128:128-f80:128-n8:16:32:64-S128"
target triple = "x86_64-pc-linux-gnu"

%"class.OpenColorIO_v2_5dev::MatrixOpData::Offsets" = type { [4 x double] }
%"class.OpenColorIO_v2_5dev::ArrayT" = type { %"class.OpenColorIO_v2_5dev::ArrayBase", i64, i64, %"class.std::vector" }
%"class.OpenColorIO_v2_5dev::ArrayBase" = type { ptr }
%"class.std::vector" = type { %"struct.std::_Vector_base" }
%"struct.std::_Vector_base" = type { %"struct.std::_Vector_base<double, std::allocator<double>>::_Vector_impl" }
%"struct.std::_Vector_base<double, std::allocator<double>>::_Vector_impl" = type { %"struct.std::_Vector_base<double, std::allocator<double>>::_Vector_impl_data" }
%"struct.std::_Vector_base<double, std::allocator<double>>::_Vector_impl_data" = type { ptr, ptr, ptr }
%"class.OpenColorIO_v2_5dev::MatrixOpData" = type <{ %"class.OpenColorIO_v2_5dev::OpData", %"class.OpenColorIO_v2_5dev::MatrixOpData::MatrixArray", %"class.OpenColorIO_v2_5dev::MatrixOpData::Offsets", i32, i32, i32, [4 x i8] }>
%"class.OpenColorIO_v2_5dev::OpData" = type { ptr, %"class.std::mutex", %"class.OpenColorIO_v2_5dev::FormatMetadataImpl" }
%"class.std::mutex" = type { %"class.std::__mutex_base" }
%"class.std::__mutex_base" = type { %union.pthread_mutex_t }
%union.pthread_mutex_t = type { %struct.__pthread_mutex_s }
%struct.__pthread_mutex_s = type { i32, i32, i32, i32, i32, i16, i16, %struct.__pthread_internal_list }
%struct.__pthread_internal_list = type { ptr, ptr }
%"class.OpenColorIO_v2_5dev::FormatMetadataImpl" = type { %"class.OpenColorIO_v2_5dev::FormatMetadata", %"class.std::__cxx11::basic_string", %"class.std::__cxx11::basic_string", %"class.std::vector.4", %"class.std::vector.9" }
%"class.OpenColorIO_v2_5dev::FormatMetadata" = type { ptr }
%"class.std::__cxx11::basic_string" = type { %"struct.std::__cxx11::basic_string<char>::_Alloc_hider", i64, %union.anon.3 }
%"struct.std::__cxx11::basic_string<char>::_Alloc_hider" = type { ptr }
%union.anon.3 = type { i64, [8 x i8] }
%"class.std::vector.4" = type { %"struct.std::_Vector_base.5" }
%"struct.std::_Vector_base.5" = type { %"struct.std::_Vector_base<std::pair<std::__cxx11::basic_string<char>, std::__cxx11::basic_string<char>>, std::allocator<std::pair<std::__cxx11::basic_string<char>, std::__cxx11::basic_string<char>>>>::_Vector_impl" }
%"struct.std::_Vector_base<std::pair<std::__cxx11::basic_string<char>, std::__cxx11::basic_string<char>>, std::allocator<std::pair<std::__cxx11::basic_string<char>, std::__cxx11::basic_string<char>>>>::_Vector_impl" = type { %"struct.std::_Vector_base<std::pair<std::__cxx11::basic_string<char>, std::__cxx11::basic_string<char>>, std::allocator<std::pair<std::__cxx11::basic_string<char>, std::__cxx11::basic_string<char>>>>::_Vector_impl_data" }
%"struct.std::_Vector_base<std::pair<std::__cxx11::basic_string<char>, std::__cxx11::basic_string<char>>, std::allocator<std::pair<std::__cxx11::basic_string<char>, std::__cxx11::basic_string<char>>>>::_Vector_impl_data" = type { ptr, ptr, ptr }
%"class.std::vector.9" = type { %"struct.std::_Vector_base.10" }
%"struct.std::_Vector_base.10" = type { %"struct.std::_Vector_base<OpenColorIO_v2_5dev::FormatMetadataImpl, std::allocator<OpenColorIO_v2_5dev::FormatMetadataImpl>>::_Vector_impl" }
%"struct.std::_Vector_base<OpenColorIO_v2_5dev::FormatMetadataImpl, std::allocator<OpenColorIO_v2_5dev::FormatMetadataImpl>>::_Vector_impl" = type { %"struct.std::_Vector_base<OpenColorIO_v2_5dev::FormatMetadataImpl, std::allocator<OpenColorIO_v2_5dev::FormatMetadataImpl>>::_Vector_impl_data" }
%"struct.std::_Vector_base<OpenColorIO_v2_5dev::FormatMetadataImpl, std::allocator<OpenColorIO_v2_5dev::FormatMetadataImpl>>::_Vector_impl_data" = type { ptr, ptr, ptr }
%"class.OpenColorIO_v2_5dev::MatrixOpData::MatrixArray" = type { %"class.OpenColorIO_v2_5dev::ArrayT" }

; Function Attrs: mustprogress nounwind uwtable
define linkonce_odr hidden noundef nonnull align 8 dereferenceable(8) ptr @_ZNSt6vectorIdSaIdEEixEm(ptr noundef nonnull align 8 dereferenceable(24) %0, i64 noundef %1) #7 comdat align 2 {
  %3 = alloca ptr, align 8
  %4 = alloca i64, align 8
  store ptr %0, ptr %3, align 8, !tbaa !18
  store i64 %1, ptr %4, align 8, !tbaa !22
  %5 = load ptr, ptr %3, align 8
  %6 = getelementptr inbounds nuw %"struct.std::_Vector_base", ptr %5, i32 0, i32 0
  %7 = getelementptr inbounds nuw %"struct.std::_Vector_base<double, std::allocator<double>>::_Vector_impl_data", ptr %6, i32 0, i32 0
  %8 = load ptr, ptr %7, align 8, !tbaa !24
  %9 = load i64, ptr %4, align 8, !tbaa !22
  %10 = getelementptr inbounds nuw double, ptr %8, i64 %9
  ret ptr %10
}

; Function Attrs: inlinehint mustprogress nounwind uwtable
define linkonce_odr hidden noundef nonnull align 8 dereferenceable(24) ptr @_ZN19OpenColorIO_v2_5dev6ArrayTIdE9getValuesEv(ptr noundef nonnull align 8 dereferenceable(48) %0) #6 comdat align 2 {
  %2 = alloca ptr, align 8
  store ptr %0, ptr %2, align 8, !tbaa !20
  %3 = load ptr, ptr %2, align 8
  %4 = getelementptr inbounds nuw %"class.OpenColorIO_v2_5dev::ArrayT", ptr %3, i32 0, i32 3
  ret ptr %4
}

; Function Attrs: mustprogress uwtable
define weak_odr hidden void @_ZN19OpenColorIO_v2_5dev12MatrixOpData11MatrixArray6setRGBIfEEvPKT_(ptr noundef nonnull align 8 dereferenceable(48) %0, ptr noundef %1) #4 comdat align 2 {
  %3 = alloca ptr, align 8
  %4 = alloca ptr, align 8
  %5 = alloca ptr, align 8
  store ptr %0, ptr %3, align 8, !tbaa !16
  store ptr %1, ptr %4, align 8, !tbaa !8
  %6 = load ptr, ptr %3, align 8
  call void @llvm.lifetime.start.p0(i64 8, ptr %5) #3
  %7 = call noundef nonnull align 8 dereferenceable(24) ptr @_ZN19OpenColorIO_v2_5dev6ArrayTIdE9getValuesEv(ptr noundef nonnull align 8 dereferenceable(48) %6)
  store ptr %7, ptr %5, align 8, !tbaa !18
  %8 = load ptr, ptr %4, align 8, !tbaa !8
  %9 = getelementptr inbounds float, ptr %8, i64 0
  %10 = load float, ptr %9, align 4, !tbaa !10
  %11 = fpext float %10 to double
  %12 = load ptr, ptr %5, align 8, !tbaa !18
  %13 = call noundef nonnull align 8 dereferenceable(8) ptr @_ZNSt6vectorIdSaIdEEixEm(ptr noundef nonnull align 8 dereferenceable(24) %12, i64 noundef 0) #3
  store double %11, ptr %13, align 8, !tbaa !12
  %14 = load ptr, ptr %4, align 8, !tbaa !8
  %15 = getelementptr inbounds float, ptr %14, i64 1
  %16 = load float, ptr %15, align 4, !tbaa !10
  %17 = fpext float %16 to double
  %18 = load ptr, ptr %5, align 8, !tbaa !18
  %19 = call noundef nonnull align 8 dereferenceable(8) ptr @_ZNSt6vectorIdSaIdEEixEm(ptr noundef nonnull align 8 dereferenceable(24) %18, i64 noundef 1) #3
  store double %17, ptr %19, align 8, !tbaa !12
  %20 = load ptr, ptr %4, align 8, !tbaa !8
  %21 = getelementptr inbounds float, ptr %20, i64 2
  %22 = load float, ptr %21, align 4, !tbaa !10
  %23 = fpext float %22 to double
  %24 = load ptr, ptr %5, align 8, !tbaa !18
  %25 = call noundef nonnull align 8 dereferenceable(8) ptr @_ZNSt6vectorIdSaIdEEixEm(ptr noundef nonnull align 8 dereferenceable(24) %24, i64 noundef 2) #3
  store double %23, ptr %25, align 8, !tbaa !12
  %26 = load ptr, ptr %5, align 8, !tbaa !18
  %27 = call noundef nonnull align 8 dereferenceable(8) ptr @_ZNSt6vectorIdSaIdEEixEm(ptr noundef nonnull align 8 dereferenceable(24) %26, i64 noundef 3) #3
  store double 0.000000e+00, ptr %27, align 8, !tbaa !12
  %28 = load ptr, ptr %4, align 8, !tbaa !8
  %29 = getelementptr inbounds float, ptr %28, i64 3
  %30 = load float, ptr %29, align 4, !tbaa !10
  %31 = fpext float %30 to double
  %32 = load ptr, ptr %5, align 8, !tbaa !18
  %33 = call noundef nonnull align 8 dereferenceable(8) ptr @_ZNSt6vectorIdSaIdEEixEm(ptr noundef nonnull align 8 dereferenceable(24) %32, i64 noundef 4) #3
  store double %31, ptr %33, align 8, !tbaa !12
  %34 = load ptr, ptr %4, align 8, !tbaa !8
  %35 = getelementptr inbounds float, ptr %34, i64 4
  %36 = load float, ptr %35, align 4, !tbaa !10
  %37 = fpext float %36 to double
  %38 = load ptr, ptr %5, align 8, !tbaa !18
  %39 = call noundef nonnull align 8 dereferenceable(8) ptr @_ZNSt6vectorIdSaIdEEixEm(ptr noundef nonnull align 8 dereferenceable(24) %38, i64 noundef 5) #3
  store double %37, ptr %39, align 8, !tbaa !12
  %40 = load ptr, ptr %4, align 8, !tbaa !8
  %41 = getelementptr inbounds float, ptr %40, i64 5
  %42 = load float, ptr %41, align 4, !tbaa !10
  %43 = fpext float %42 to double
  %44 = load ptr, ptr %5, align 8, !tbaa !18
  %45 = call noundef nonnull align 8 dereferenceable(8) ptr @_ZNSt6vectorIdSaIdEEixEm(ptr noundef nonnull align 8 dereferenceable(24) %44, i64 noundef 6) #3
  store double %43, ptr %45, align 8, !tbaa !12
  %46 = load ptr, ptr %5, align 8, !tbaa !18
  %47 = call noundef nonnull align 8 dereferenceable(8) ptr @_ZNSt6vectorIdSaIdEEixEm(ptr noundef nonnull align 8 dereferenceable(24) %46, i64 noundef 7) #3
  store double 0.000000e+00, ptr %47, align 8, !tbaa !12
  %48 = load ptr, ptr %4, align 8, !tbaa !8
  %49 = getelementptr inbounds float, ptr %48, i64 6
  %50 = load float, ptr %49, align 4, !tbaa !10
  %51 = fpext float %50 to double
  %52 = load ptr, ptr %5, align 8, !tbaa !18
  %53 = call noundef nonnull align 8 dereferenceable(8) ptr @_ZNSt6vectorIdSaIdEEixEm(ptr noundef nonnull align 8 dereferenceable(24) %52, i64 noundef 8) #3
  store double %51, ptr %53, align 8, !tbaa !12
  %54 = load ptr, ptr %4, align 8, !tbaa !8
  %55 = getelementptr inbounds float, ptr %54, i64 7
  %56 = load float, ptr %55, align 4, !tbaa !10
  %57 = fpext float %56 to double
  %58 = load ptr, ptr %5, align 8, !tbaa !18
  %59 = call noundef nonnull align 8 dereferenceable(8) ptr @_ZNSt6vectorIdSaIdEEixEm(ptr noundef nonnull align 8 dereferenceable(24) %58, i64 noundef 9) #3
  store double %57, ptr %59, align 8, !tbaa !12
  %60 = load ptr, ptr %4, align 8, !tbaa !8
  %61 = getelementptr inbounds float, ptr %60, i64 8
  %62 = load float, ptr %61, align 4, !tbaa !10
  %63 = fpext float %62 to double
  %64 = load ptr, ptr %5, align 8, !tbaa !18
  %65 = call noundef nonnull align 8 dereferenceable(8) ptr @_ZNSt6vectorIdSaIdEEixEm(ptr noundef nonnull align 8 dereferenceable(24) %64, i64 noundef 10) #3
  store double %63, ptr %65, align 8, !tbaa !12
  %66 = load ptr, ptr %5, align 8, !tbaa !18
  %67 = call noundef nonnull align 8 dereferenceable(8) ptr @_ZNSt6vectorIdSaIdEEixEm(ptr noundef nonnull align 8 dereferenceable(24) %66, i64 noundef 11) #3
  store double 0.000000e+00, ptr %67, align 8, !tbaa !12
  %68 = load ptr, ptr %5, align 8, !tbaa !18
  %69 = call noundef nonnull align 8 dereferenceable(8) ptr @_ZNSt6vectorIdSaIdEEixEm(ptr noundef nonnull align 8 dereferenceable(24) %68, i64 noundef 12) #3
  store double 0.000000e+00, ptr %69, align 8, !tbaa !12
  %70 = load ptr, ptr %5, align 8, !tbaa !18
  %71 = call noundef nonnull align 8 dereferenceable(8) ptr @_ZNSt6vectorIdSaIdEEixEm(ptr noundef nonnull align 8 dereferenceable(24) %70, i64 noundef 13) #3
  store double 0.000000e+00, ptr %71, align 8, !tbaa !12
  %72 = load ptr, ptr %5, align 8, !tbaa !18
  %73 = call noundef nonnull align 8 dereferenceable(8) ptr @_ZNSt6vectorIdSaIdEEixEm(ptr noundef nonnull align 8 dereferenceable(24) %72, i64 noundef 14) #3
  store double 0.000000e+00, ptr %73, align 8, !tbaa !12
  %74 = load ptr, ptr %5, align 8, !tbaa !18
  %75 = call noundef nonnull align 8 dereferenceable(8) ptr @_ZNSt6vectorIdSaIdEEixEm(ptr noundef nonnull align 8 dereferenceable(24) %74, i64 noundef 15) #3
  store double 1.000000e+00, ptr %75, align 8, !tbaa !12
  call void @llvm.lifetime.end.p0(i64 8, ptr %5) #3
  ret void
}

; Function Attrs: mustprogress uwtable
define hidden void @_ZN19OpenColorIO_v2_5dev12MatrixOpData6setRGBEPKf(ptr noundef nonnull align 8 dereferenceable(260) %0, ptr noundef %1) #4 align 2 {
  %3 = alloca ptr, align 8
  %4 = alloca ptr, align 8
  store ptr %0, ptr %3, align 8, !tbaa !26
  store ptr %1, ptr %4, align 8, !tbaa !8
  %5 = load ptr, ptr %3, align 8
  %6 = getelementptr inbounds nuw %"class.OpenColorIO_v2_5dev::MatrixOpData", ptr %5, i32 0, i32 1
  %7 = load ptr, ptr %4, align 8, !tbaa !8
  call void @_ZN19OpenColorIO_v2_5dev12MatrixOpData11MatrixArray6setRGBIfEEvPKT_(ptr noundef nonnull align 8 dereferenceable(48) %6, ptr noundef %7)
  ret void
}