; Function Attrs: mustprogress nofree norecurse nosync nounwind willreturn memory(write, argmem: readwrite, inaccessiblemem: none) uwtable
define hidden void @_ZN19OpenColorIO_v2_5dev12MatrixOpData6setRGBEPKf(ptr noundef nonnull readonly align 8 captures(none) dereferenceable(260) %0, ptr noundef readonly captures(none) %1) local_unnamed_addr #6 align 2 {
  %3 = getelementptr inbounds nuw i8, ptr %0, i64 192
  %4 = load float, ptr %1, align 4, !tbaa !3
  %5 = fpext float %4 to double
  %6 = load ptr, ptr %3, align 8, !tbaa !9
  store double %5, ptr %6, align 8, !tbaa !7
  %7 = getelementptr inbounds nuw i8, ptr %1, i64 4
  %8 = load float, ptr %7, align 4, !tbaa !3
  %9 = fpext float %8 to double
  %10 = getelementptr inbounds nuw i8, ptr %6, i64 8
  store double %9, ptr %10, align 8, !tbaa !7
  %11 = getelementptr inbounds nuw i8, ptr %1, i64 8
  %12 = load float, ptr %11, align 4, !tbaa !3
  %13 = fpext float %12 to double
  %14 = getelementptr inbounds nuw i8, ptr %6, i64 16
  store double %13, ptr %14, align 8, !tbaa !7
  %15 = getelementptr inbounds nuw i8, ptr %6, i64 24
  store double 0.000000e+00, ptr %15, align 8, !tbaa !7
  %16 = getelementptr inbounds nuw i8, ptr %1, i64 12
  %17 = load float, ptr %16, align 4, !tbaa !3
  %18 = fpext float %17 to double
  %19 = getelementptr inbounds nuw i8, ptr %6, i64 32
  store double %18, ptr %19, align 8, !tbaa !7
  %20 = getelementptr inbounds nuw i8, ptr %1, i64 16
  %21 = load float, ptr %20, align 4, !tbaa !3
  %22 = fpext float %21 to double
  %23 = getelementptr inbounds nuw i8, ptr %6, i64 40
  store double %22, ptr %23, align 8, !tbaa !7
  %24 = getelementptr inbounds nuw i8, ptr %1, i64 20
  %25 = load float, ptr %24, align 4, !tbaa !3
  %26 = fpext float %25 to double
  %27 = getelementptr inbounds nuw i8, ptr %6, i64 48
  store double %26, ptr %27, align 8, !tbaa !7
  %28 = getelementptr inbounds nuw i8, ptr %6, i64 56
  store double 0.000000e+00, ptr %28, align 8, !tbaa !7
  %29 = getelementptr inbounds nuw i8, ptr %1, i64 24
  %30 = load float, ptr %29, align 4, !tbaa !3
  %31 = fpext float %30 to double
  %32 = getelementptr inbounds nuw i8, ptr %6, i64 64
  store double %31, ptr %32, align 8, !tbaa !7
  %33 = getelementptr inbounds nuw i8, ptr %1, i64 28
  %34 = load float, ptr %33, align 4, !tbaa !3
  %35 = fpext float %34 to double
  %36 = getelementptr inbounds nuw i8, ptr %6, i64 72
  store double %35, ptr %36, align 8, !tbaa !7
  %37 = getelementptr inbounds nuw i8, ptr %1, i64 32
  %38 = load float, ptr %37, align 4, !tbaa !3
  %39 = fpext float %38 to double
  %40 = getelementptr inbounds nuw i8, ptr %6, i64 80
  store double %39, ptr %40, align 8, !tbaa !7
  %41 = getelementptr inbounds nuw i8, ptr %6, i64 88
  %42 = getelementptr inbounds nuw i8, ptr %6, i64 120
  tail call void @llvm.memset.p0.i64(ptr noundef nonnull align 8 dereferenceable(32) %41, i8 0, i64 32, i1 false)
  store double 1.000000e+00, ptr %42, align 8, !tbaa !7
  ret void
}